target datalayout = "e-m:e-p270:32:32-p271:32:32-p272:64:64-i64:64-i128:128-f80:128-n8:16:32:64-S128"
target triple = "x86_64-pc-linux-gnu"

%class.symbol = type { ptr }
%class.ast = type { i32, i32, i32, i32 }
%class.expr = type { %class.ast }
%class.quantifier = type { %class.expr, i32, i32, ptr, ptr, i32, i32, i8, i8, %class.symbol, %class.symbol, i32, i32, [0 x i8] }

; Function Attrs: mustprogress nounwind uwtable
define linkonce_odr hidden noundef ptr @_ZNK10quantifier15get_no_patternsEv(ptr noundef nonnull align 8 dereferenceable(80) %0) #4 comdat align 2 {
  %2 = alloca ptr, align 8
  store ptr %0, ptr %2, align 8, !tbaa !137
  %3 = load ptr, ptr %2, align 8
  %4 = call noundef ptr @_ZNK10quantifier14get_decl_namesEv(ptr noundef nonnull align 8 dereferenceable(80) %3)
  %5 = getelementptr inbounds nuw %class.quantifier, ptr %3, i32 0, i32 2
  %6 = load i32, ptr %5, align 4, !tbaa !143
  %7 = zext i32 %6 to i64
  %8 = getelementptr inbounds nuw %class.symbol, ptr %4, i64 %7
  ret ptr %8
}

; Function Attrs: mustprogress nounwind uwtable
define linkonce_odr hidden noundef ptr @_ZNK10quantifier12get_patternsEv(ptr noundef nonnull align 8 dereferenceable(80) %0) #4 comdat align 2 {
  %2 = alloca ptr, align 8
  store ptr %0, ptr %2, align 8, !tbaa !137
  %3 = load ptr, ptr %2, align 8
  %4 = call noundef ptr @_ZNK10quantifier14get_decl_namesEv(ptr noundef nonnull align 8 dereferenceable(80) %3)
  %5 = getelementptr inbounds nuw %class.quantifier, ptr %3, i32 0, i32 2
  %6 = load i32, ptr %5, align 4, !tbaa !143
  %7 = zext i32 %6 to i64
  %8 = getelementptr inbounds nuw %class.symbol, ptr %4, i64 %7
  ret ptr %8
}

; Function Attrs: mustprogress nounwind uwtable
define linkonce_odr hidden noundef ptr @_ZNK10quantifier14get_no_patternEj(ptr noundef nonnull align 8 dereferenceable(80) %0, i32 noundef %1) #4 comdat align 2 {
  %3 = alloca ptr, align 8
  %4 = alloca i32, align 4
  store ptr %0, ptr %3, align 8, !tbaa !137
  store i32 %1, ptr %4, align 4, !tbaa !25
  %5 = load ptr, ptr %3, align 8
  %6 = call noundef ptr @_ZNK10quantifier15get_no_patternsEv(ptr noundef nonnull align 8 dereferenceable(80) %5)
  %7 = load i32, ptr %4, align 4, !tbaa !25
  %8 = zext i32 %7 to i64
  %9 = getelementptr inbounds nuw ptr, ptr %6, i64 %8
  %10 = load ptr, ptr %9, align 8, !tbaa !132
  ret ptr %10
}

; Function Attrs: mustprogress nounwind uwtable
define linkonce_odr hidden noundef i32 @_ZNK10quantifier19get_num_no_patternsEv(ptr noundef nonnull align 8 dereferenceable(80) %0) #4 comdat align 2 {
  %2 = alloca ptr, align 8
  store ptr %0, ptr %2, align 8, !tbaa !137
  %3 = load ptr, ptr %2, align 8
  %4 = getelementptr inbounds nuw %class.quantifier, ptr %3, i32 0, i32 12
  %5 = load i32, ptr %4, align 4, !tbaa !151
  ret i32 %5
}

; Function Attrs: mustprogress nounwind uwtable
define linkonce_odr hidden noundef ptr @_ZNK10quantifier11get_patternEj(ptr noundef nonnull align 8 dereferenceable(80) %0, i32 noundef %1) #4 comdat align 2 {
  %3 = alloca ptr, align 8
  %4 = alloca i32, align 4
  store ptr %0, ptr %3, align 8, !tbaa !137
  store i32 %1, ptr %4, align 4, !tbaa !25
  %5 = load ptr, ptr %3, align 8
  %6 = call noundef ptr @_ZNK10quantifier12get_patternsEv(ptr noundef nonnull align 8 dereferenceable(80) %5)
  %7 = load i32, ptr %4, align 4, !tbaa !25
  %8 = zext i32 %7 to i64
  %9 = getelementptr inbounds nuw ptr, ptr %6, i64 %8
  %10 = load ptr, ptr %9, align 8, !tbaa !132
  ret ptr %10
}

; Function Attrs: mustprogress nounwind uwtable
define linkonce_odr hidden noundef i32 @_ZNK10quantifier16get_num_patternsEv(ptr noundef nonnull align 8 dereferenceable(80) %0) #4 comdat align 2 {
  %2 = alloca ptr, align 8
  store ptr %0, ptr %2, align 8, !tbaa !137
  %3 = load ptr, ptr %2, align 8
  %4 = getelementptr inbounds nuw %class.quantifier, ptr %3, i32 0, i32 11
  %5 = load i32, ptr %4, align 8, !tbaa !150
  ret i32 %5
}

; Function Attrs: mustprogress nounwind uwtable
define linkonce_odr hidden noundef nonnull align 8 dereferenceable(8) ptr @_ZNK10quantifier8get_skidEv(ptr noundef nonnull align 8 dereferenceable(80) %0) #4 comdat align 2 {
  %2 = alloca ptr, align 8
  store ptr %0, ptr %2, align 8, !tbaa !137
  %3 = load ptr, ptr %2, align 8
  %4 = getelementptr inbounds nuw %class.quantifier, ptr %3, i32 0, i32 10
  ret ptr %4
}

; Function Attrs: mustprogress nounwind uwtable
define linkonce_odr hidden noundef nonnull align 8 dereferenceable(8) ptr @_ZNK10quantifier7get_qidEv(ptr noundef nonnull align 8 dereferenceable(80) %0) #4 comdat align 2 {
  %2 = alloca ptr, align 8
  store ptr %0, ptr %2, align 8, !tbaa !137
  %3 = load ptr, ptr %2, align 8
  %4 = getelementptr inbounds nuw %class.quantifier, ptr %3, i32 0, i32 9
  ret ptr %4
}

; Function Attrs: mustprogress nounwind uwtable
define linkonce_odr hidden noundef i32 @_ZNK10quantifier10get_weightEv(ptr noundef nonnull align 8 dereferenceable(80) %0) #4 comdat align 2 {
  %2 = alloca ptr, align 8
  store ptr %0, ptr %2, align 8, !tbaa !137
  %3 = load ptr, ptr %2, align 8
  %4 = getelementptr inbounds nuw %class.quantifier, ptr %3, i32 0, i32 6
  %5 = load i32, ptr %4, align 4, !tbaa !147
  ret i32 %5
}

; Function Attrs: mustprogress nounwind uwtable
define linkonce_odr hidden noundef ptr @_ZNK10quantifier14get_decl_namesEv(ptr noundef nonnull align 8 dereferenceable(80) %0) #4 comdat align 2 {
  %2 = alloca ptr, align 8
  store ptr %0, ptr %2, align 8, !tbaa !137
  %3 = load ptr, ptr %2, align 8
  %4 = call noundef ptr @_ZNK10quantifier14get_decl_sortsEv(ptr noundef nonnull align 8 dereferenceable(80) %3)
  %5 = getelementptr inbounds nuw %class.quantifier, ptr %3, i32 0, i32 2
  %6 = load i32, ptr %5, align 4, !tbaa !143
  %7 = zext i32 %6 to i64
  %8 = getelementptr inbounds nuw ptr, ptr %4, i64 %7
  ret ptr %8
}

; Function Attrs: mustprogress nounwind uwtable
define linkonce_odr hidden noundef ptr @_ZNK10quantifier14get_decl_sortsEv(ptr noundef nonnull align 8 dereferenceable(80) %0) #4 comdat align 2 {
  %2 = alloca ptr, align 8
  store ptr %0, ptr %2, align 8, !tbaa !137
  %3 = load ptr, ptr %2, align 8
  %4 = getelementptr inbounds nuw %class.quantifier, ptr %3, i32 0, i32 13
  %5 = getelementptr inbounds [0 x i8], ptr %4, i64 0, i64 0
  ret ptr %5
}

; Function Attrs: mustprogress nounwind uwtable
define linkonce_odr hidden noundef i32 @_ZNK10quantifier13get_num_declsEv(ptr noundef nonnull align 8 dereferenceable(80) %0) #4 comdat align 2 {
  %2 = alloca ptr, align 8
  store ptr %0, ptr %2, align 8, !tbaa !137
  %3 = load ptr, ptr %2, align 8
  %4 = getelementptr inbounds nuw %class.quantifier, ptr %3, i32 0, i32 2
  %5 = load i32, ptr %4, align 4, !tbaa !143
  ret i32 %5
}

; Function Attrs: mustprogress nounwind uwtable
define linkonce_odr hidden noundef i32 @_ZNK10quantifier8get_kindEv(ptr noundef nonnull align 8 dereferenceable(80) %0) #4 comdat align 2 {
  %2 = alloca ptr, align 8
  store ptr %0, ptr %2, align 8, !tbaa !137
  %3 = load ptr, ptr %2, align 8
  %4 = getelementptr inbounds nuw %class.quantifier, ptr %3, i32 0, i32 1
  %5 = load i32, ptr %4, align 8, !tbaa !141
  ret i32 %5
}

; Function Attrs: mustprogress uwtable
define internal noundef zeroext i1 @_ZL16same_no_patternsP10quantifierjPKP4expr(ptr noundef %0, i32 noundef %1, ptr noundef %2) #6 {
  %4 = alloca i1, align 1
  %5 = alloca ptr, align 8
  %6 = alloca i32, align 4
  %7 = alloca ptr, align 8
  %8 = alloca i32, align 4
  %9 = alloca i32, align 4
  store ptr %0, ptr %5, align 8, !tbaa !137
  store i32 %1, ptr %6, align 4, !tbaa !25
  store ptr %2, ptr %7, align 8, !tbaa !125
  %10 = load i32, ptr %6, align 4, !tbaa !25
  %11 = load ptr, ptr %5, align 8, !tbaa !137
  %12 = call noundef i32 @_ZNK10quantifier19get_num_no_patternsEv(ptr noundef nonnull align 8 dereferenceable(80) %11)
  %13 = icmp ne i32 %10, %12
  br i1 %13, label %14, label %15

14:                                               ; preds = %3
  store i1 false, ptr %4, align 1
  br label %39

15:                                               ; preds = %3
  call void @llvm.lifetime.start.p0(i64 4, ptr %8) #3
  store i32 0, ptr %8, align 4, !tbaa !25
  br label %16

16:                                               ; preds = %33, %15
  %17 = load i32, ptr %8, align 4, !tbaa !25
  %18 = load i32, ptr %6, align 4, !tbaa !25
  %19 = icmp ult i32 %17, %18
  br i1 %19, label %21, label %20

20:                                               ; preds = %16
  store i32 2, ptr %9, align 4
  br label %36

21:                                               ; preds = %16
  %22 = load ptr, ptr %5, align 8, !tbaa !137
  %23 = load i32, ptr %8, align 4, !tbaa !25
  %24 = call noundef ptr @_ZNK10quantifier14get_no_patternEj(ptr noundef nonnull align 8 dereferenceable(80) %22, i32 noundef %23)
  %25 = load ptr, ptr %7, align 8, !tbaa !125
  %26 = load i32, ptr %8, align 4, !tbaa !25
  %27 = zext i32 %26 to i64
  %28 = getelementptr inbounds nuw ptr, ptr %25, i64 %27
  %29 = load ptr, ptr %28, align 8, !tbaa !132
  %30 = icmp ne ptr %24, %29
  br i1 %30, label %31, label %32

31:                                               ; preds = %21
  store i1 false, ptr %4, align 1
  store i32 1, ptr %9, align 4
  br label %36

32:                                               ; preds = %21
  br label %33

33:                                               ; preds = %32
  %34 = load i32, ptr %8, align 4, !tbaa !25
  %35 = add i32 %34, 1
  store i32 %35, ptr %8, align 4, !tbaa !25
  br label %16, !llvm.loop !535

36:                                               ; preds = %31, %20
  call void @llvm.lifetime.end.p0(i64 4, ptr %8) #3
  %37 = load i32, ptr %9, align 4
  switch i32 %37, label %41 [
    i32 2, label %38
    i32 1, label %39
  ]

38:                                               ; preds = %36
  store i1 true, ptr %4, align 1
  br label %39

39:                                               ; preds = %38, %36, %14
  %40 = load i1, ptr %4, align 1
  ret i1 %40

41:                                               ; preds = %36
  unreachable
}

; Function Attrs: mustprogress nounwind uwtable
define internal noundef zeroext i1 @_ZL13same_patternsP10quantifierjPKP4expr(ptr noundef %0, i32 noundef %1, ptr noundef %2) #4 {
  %4 = alloca i1, align 1
  %5 = alloca ptr, align 8
  %6 = alloca i32, align 4
  %7 = alloca ptr, align 8
  %8 = alloca i32, align 4
  %9 = alloca i32, align 4
  store ptr %0, ptr %5, align 8, !tbaa !137
  store i32 %1, ptr %6, align 4, !tbaa !25
  store ptr %2, ptr %7, align 8, !tbaa !125
  %10 = load i32, ptr %6, align 4, !tbaa !25
  %11 = load ptr, ptr %5, align 8, !tbaa !137
  %12 = call noundef i32 @_ZNK10quantifier16get_num_patternsEv(ptr noundef nonnull align 8 dereferenceable(80) %11)
  %13 = icmp ne i32 %10, %12
  br i1 %13, label %14, label %15

14:                                               ; preds = %3
  store i1 false, ptr %4, align 1
  br label %39

15:                                               ; preds = %3
  call void @llvm.lifetime.start.p0(i64 4, ptr %8) #3
  store i32 0, ptr %8, align 4, !tbaa !25
  br label %16

16:                                               ; preds = %33, %15
  %17 = load i32, ptr %8, align 4, !tbaa !25
  %18 = load i32, ptr %6, align 4, !tbaa !25
  %19 = icmp ult i32 %17, %18
  br i1 %19, label %21, label %20

20:                                               ; preds = %16
  store i32 2, ptr %9, align 4
  br label %36

21:                                               ; preds = %16
  %22 = load ptr, ptr %5, align 8, !tbaa !137
  %23 = load i32, ptr %8, align 4, !tbaa !25
  %24 = call noundef ptr @_ZNK10quantifier11get_patternEj(ptr noundef nonnull align 8 dereferenceable(80) %22, i32 noundef %23)
  %25 = load ptr, ptr %7, align 8, !tbaa !125
  %26 = load i32, ptr %8, align 4, !tbaa !25
  %27 = zext i32 %26 to i64
  %28 = getelementptr inbounds nuw ptr, ptr %25, i64 %27
  %29 = load ptr, ptr %28, align 8, !tbaa !132
  %30 = icmp ne ptr %24, %29
  br i1 %30, label %31, label %32

31:                                               ; preds = %21
  store i1 false, ptr %4, align 1
  store i32 1, ptr %9, align 4
  br label %36

32:                                               ; preds = %21
  br label %33

33:                                               ; preds = %32
  %34 = load i32, ptr %8, align 4, !tbaa !25
  %35 = add i32 %34, 1
  store i32 %35, ptr %8, align 4, !tbaa !25
  br label %16, !llvm.loop !534

36:                                               ; preds = %31, %20
  call void @llvm.lifetime.end.p0(i64 4, ptr %8) #3
  %37 = load i32, ptr %9, align 4
  switch i32 %37, label %41 [
    i32 2, label %38
    i32 1, label %39
  ]

38:                                               ; preds = %36
  store i1 true, ptr %4, align 1
  br label %39

39:                                               ; preds = %38, %36, %14
  %40 = load i1, ptr %4, align 1
  ret i1 %40

41:                                               ; preds = %36
  unreachable
}

; Function Attrs: mustprogress nounwind uwtable
define linkonce_odr hidden noundef ptr @_ZNK10quantifier8get_exprEv(ptr noundef nonnull align 8 dereferenceable(80) %0) #4 comdat align 2 {
  %2 = alloca ptr, align 8
  store ptr %0, ptr %2, align 8, !tbaa !137
  %3 = load ptr, ptr %2, align 8
  %4 = getelementptr inbounds nuw %class.quantifier, ptr %3, i32 0, i32 3
  %5 = load ptr, ptr %4, align 8, !tbaa !144
  ret ptr %5
}

; Function Attrs: mustprogress uwtable
define hidden noundef ptr @_ZN11ast_manager17update_quantifierEP10quantifierjPKP4exprjS5_S3_(ptr noundef nonnull align 8 dereferenceable(976) %0, ptr noundef %1, i32 noundef %2, ptr noundef %3, i32 noundef %4, ptr noundef %5, ptr noundef %6) #6 align 2 {
  %8 = alloca ptr, align 8
  %9 = alloca ptr, align 8
  %10 = alloca ptr, align 8
  %11 = alloca i32, align 4
  %12 = alloca ptr, align 8
  %13 = alloca i32, align 4
  %14 = alloca ptr, align 8
  %15 = alloca ptr, align 8
  store ptr %0, ptr %9, align 8, !tbaa !21
  store ptr %1, ptr %10, align 8, !tbaa !137
  store i32 %2, ptr %11, align 4, !tbaa !25
  store ptr %3, ptr %12, align 8, !tbaa !125
  store i32 %4, ptr %13, align 4, !tbaa !25
  store ptr %5, ptr %14, align 8, !tbaa !125
  store ptr %6, ptr %15, align 8, !tbaa !132
  %16 = load ptr, ptr %9, align 8
  %17 = load ptr, ptr %10, align 8, !tbaa !137
  %18 = call noundef ptr @_ZNK10quantifier8get_exprEv(ptr noundef nonnull align 8 dereferenceable(80) %17)
  %19 = load ptr, ptr %15, align 8, !tbaa !132
  %20 = icmp eq ptr %18, %19
  br i1 %20, label %21, label %33

21:                                               ; preds = %7
  %22 = load ptr, ptr %10, align 8, !tbaa !137
  %23 = load i32, ptr %11, align 4, !tbaa !25
  %24 = load ptr, ptr %12, align 8, !tbaa !125
  %25 = call noundef zeroext i1 @_ZL13same_patternsP10quantifierjPKP4expr(ptr noundef %22, i32 noundef %23, ptr noundef %24)
  br i1 %25, label %26, label %33

26:                                               ; preds = %21
  %27 = load ptr, ptr %10, align 8, !tbaa !137
  %28 = load i32, ptr %13, align 4, !tbaa !25
  %29 = load ptr, ptr %14, align 8, !tbaa !125
  %30 = call noundef zeroext i1 @_ZL16same_no_patternsP10quantifierjPKP4expr(ptr noundef %27, i32 noundef %28, ptr noundef %29)
  br i1 %30, label %31, label %33

31:                                               ; preds = %26
  %32 = load ptr, ptr %10, align 8, !tbaa !137
  store ptr %32, ptr %8, align 8
  br label %54

33:                                               ; preds = %26, %21, %7
  %34 = load ptr, ptr %10, align 8, !tbaa !137
  %35 = call noundef i32 @_ZNK10quantifier8get_kindEv(ptr noundef nonnull align 8 dereferenceable(80) %34)
  %36 = load ptr, ptr %10, align 8, !tbaa !137
  %37 = call noundef i32 @_ZNK10quantifier13get_num_declsEv(ptr noundef nonnull align 8 dereferenceable(80) %36)
  %38 = load ptr, ptr %10, align 8, !tbaa !137
  %39 = call noundef ptr @_ZNK10quantifier14get_decl_sortsEv(ptr noundef nonnull align 8 dereferenceable(80) %38)
  %40 = load ptr, ptr %10, align 8, !tbaa !137
  %41 = call noundef ptr @_ZNK10quantifier14get_decl_namesEv(ptr noundef nonnull align 8 dereferenceable(80) %40)
  %42 = load ptr, ptr %15, align 8, !tbaa !132
  %43 = load ptr, ptr %10, align 8, !tbaa !137
  %44 = call noundef i32 @_ZNK10quantifier10get_weightEv(ptr noundef nonnull align 8 dereferenceable(80) %43)
  %45 = load ptr, ptr %10, align 8, !tbaa !137
  %46 = call noundef nonnull align 8 dereferenceable(8) ptr @_ZNK10quantifier7get_qidEv(ptr noundef nonnull align 8 dereferenceable(80) %45)
  %47 = load ptr, ptr %10, align 8, !tbaa !137
  %48 = call noundef nonnull align 8 dereferenceable(8) ptr @_ZNK10quantifier8get_skidEv(ptr noundef nonnull align 8 dereferenceable(80) %47)
  %49 = load i32, ptr %11, align 4, !tbaa !25
  %50 = load ptr, ptr %12, align 8, !tbaa !125
  %51 = load i32, ptr %13, align 4, !tbaa !25
  %52 = load ptr, ptr %14, align 8, !tbaa !125
  %53 = call noundef ptr @_ZN11ast_manager13mk_quantifierE15quantifier_kindjPKP4sortPK6symbolP4expriRS6_SA_jPKS9_jSC_(ptr noundef nonnull align 8 dereferenceable(976) %16, i32 noundef %35, i32 noundef %37, ptr noundef %39, ptr noundef %41, ptr noundef %42, i32 noundef %44, ptr noundef nonnull align 8 dereferenceable(8) %46, ptr noundef nonnull align 8 dereferenceable(8) %48, i32 noundef %49, ptr noundef %50, i32 noundef %51, ptr noundef %52)
  store ptr %53, ptr %8, align 8
  br label %54

54:                                               ; preds = %33, %31
  %55 = load ptr, ptr %8, align 8
  ret ptr %55
}