; Function Attrs: mustprogress uwtable
define hidden noundef ptr @_ZN11ast_manager17update_quantifierEP10quantifierjPKP4exprjS5_S3_(ptr noundef nonnull align 8 dereferenceable(976) %0, ptr noundef %1, i32 noundef %2, ptr noundef readonly captures(none) %3, i32 noundef %4, ptr noundef readonly captures(none) %5, ptr noundef %6) local_unnamed_addr #7 align 2 {
  %8 = getelementptr inbounds nuw i8, ptr %1, i64 24
  %9 = load ptr, ptr %8, align 8, !tbaa !131
  %10 = icmp eq ptr %9, %6
  br i1 %10, label %11, label %_ZL13same_patternsP10quantifierjPKP4expr.exit

11:                                               ; preds = %7
  %12 = getelementptr inbounds nuw i8, ptr %1, i64 72
  %13 = load i32, ptr %12, align 8, !tbaa !137
  %.not.i = icmp eq i32 %2, %13
  br i1 %.not.i, label %.preheader.i, label %_ZL13same_patternsP10quantifierjPKP4expr.exit

.preheader.i:                                     ; preds = %11
  %14 = icmp eq i32 %2, 0
  br i1 %14, label %.loopexit, label %.lr.ph.i

.lr.ph.i:                                         ; preds = %.preheader.i
  %15 = getelementptr inbounds nuw i8, ptr %1, i64 20
  %16 = getelementptr inbounds nuw i8, ptr %1, i64 80
  %17 = load i32, ptr %15, align 4, !tbaa !130
  %18 = zext i32 %17 to i64
  %19 = getelementptr inbounds nuw ptr, ptr %16, i64 %18
  %20 = getelementptr inbounds nuw %class.symbol, ptr %19, i64 %18
  %wide.trip.count.i = zext i32 %2 to i64
  br label %22

21:                                               ; preds = %22
  %indvars.iv.next.i = add nuw nsw i64 %indvars.iv.i, 1
  %exitcond.not.i = icmp eq i64 %indvars.iv.next.i, %wide.trip.count.i
  br i1 %exitcond.not.i, label %.loopexit, label %22, !llvm.loop !497

22:                                               ; preds = %21, %.lr.ph.i
  %indvars.iv.i = phi i64 [ 0, %.lr.ph.i ], [ %indvars.iv.next.i, %21 ]
  %23 = getelementptr inbounds nuw ptr, ptr %20, i64 %indvars.iv.i
  %24 = load ptr, ptr %23, align 8, !tbaa !124
  %25 = getelementptr inbounds nuw ptr, ptr %3, i64 %indvars.iv.i
  %26 = load ptr, ptr %25, align 8, !tbaa !124
  %.not13.i = icmp eq ptr %24, %26
  br i1 %.not13.i, label %21, label %_ZL13same_patternsP10quantifierjPKP4expr.exit

.loopexit:                                        ; preds = %21, %.preheader.i
  %27 = getelementptr inbounds nuw i8, ptr %1, i64 76
  %28 = load i32, ptr %27, align 4, !tbaa !138
  %.not.i22 = icmp eq i32 %4, %28
  br i1 %.not.i22, label %.preheader.i24, label %_ZL13same_patternsP10quantifierjPKP4expr.exit

.preheader.i24:                                   ; preds = %.loopexit
  %29 = icmp eq i32 %4, 0
  br i1 %29, label %_ZL16same_no_patternsP10quantifierjPKP4expr.exit.thread, label %.lr.ph.i25

.lr.ph.i25:                                       ; preds = %.preheader.i24
  %30 = getelementptr inbounds nuw i8, ptr %1, i64 20
  %31 = getelementptr inbounds nuw i8, ptr %1, i64 80
  %32 = load i32, ptr %30, align 4, !tbaa !130
  %33 = zext i32 %32 to i64
  %34 = getelementptr inbounds nuw ptr, ptr %31, i64 %33
  %35 = getelementptr inbounds nuw %class.symbol, ptr %34, i64 %33
  %wide.trip.count.i26 = zext i32 %4 to i64
  br label %37

36:                                               ; preds = %37
  %indvars.iv.next.i29 = add nuw nsw i64 %indvars.iv.i27, 1
  %exitcond.not.i30 = icmp eq i64 %indvars.iv.next.i29, %wide.trip.count.i26
  br i1 %exitcond.not.i30, label %_ZL16same_no_patternsP10quantifierjPKP4expr.exit.thread, label %37, !llvm.loop !498

37:                                               ; preds = %36, %.lr.ph.i25
  %indvars.iv.i27 = phi i64 [ 0, %.lr.ph.i25 ], [ %indvars.iv.next.i29, %36 ]
  %38 = getelementptr inbounds nuw ptr, ptr %35, i64 %indvars.iv.i27
  %39 = load ptr, ptr %38, align 8, !tbaa !124
  %40 = getelementptr inbounds nuw ptr, ptr %5, i64 %indvars.iv.i27
  %41 = load ptr, ptr %40, align 8, !tbaa !124
  %.not13.i28 = icmp eq ptr %39, %41
  br i1 %.not13.i28, label %36, label %_ZL13same_patternsP10quantifierjPKP4expr.exit

_ZL13same_patternsP10quantifierjPKP4expr.exit:    ; preds = %22, %37, %.loopexit, %11, %7
  %42 = getelementptr inbounds nuw i8, ptr %1, i64 16
  %43 = load i32, ptr %42, align 8, !tbaa !127
  %44 = getelementptr inbounds nuw i8, ptr %1, i64 20
  %45 = load i32, ptr %44, align 4, !tbaa !130
  %46 = getelementptr inbounds nuw i8, ptr %1, i64 80
  %47 = zext i32 %45 to i64
  %48 = getelementptr inbounds nuw ptr, ptr %46, i64 %47
  %49 = getelementptr inbounds nuw i8, ptr %1, i64 44
  %50 = load i32, ptr %49, align 4, !tbaa !134
  %51 = getelementptr inbounds nuw i8, ptr %1, i64 56
  %52 = getelementptr inbounds nuw i8, ptr %1, i64 64
  %53 = tail call noundef ptr @_ZN11ast_manager13mk_quantifierE15quantifier_kindjPKP4sortPK6symbolP4expriRS6_SA_jPKS9_jSC_(ptr noundef nonnull align 8 dereferenceable(976) %0, i32 noundef %43, i32 noundef %45, ptr noundef nonnull %46, ptr noundef nonnull %48, ptr noundef %6, i32 noundef %50, ptr noundef nonnull align 8 dereferenceable(8) %51, ptr noundef nonnull align 8 dereferenceable(8) %52, i32 noundef %2, ptr noundef %3, i32 noundef %4, ptr noundef %5)
  br label %_ZL16same_no_patternsP10quantifierjPKP4expr.exit.thread

_ZL16same_no_patternsP10quantifierjPKP4expr.exit.thread: ; preds = %36, %.preheader.i24, %_ZL13same_patternsP10quantifierjPKP4expr.exit
  %.0 = phi ptr [ %53, %_ZL13same_patternsP10quantifierjPKP4expr.exit ], [ %1, %.preheader.i24 ], [ %1, %36 ]
  ret ptr %.0
}